target datalayout = "e-m:e-p270:32:32-p271:32:32-p272:64:64-i64:64-i128:128-f80:128-n8:16:32:64-S128"
target triple = "x86_64-pc-linux-gnu"

%struct.expert_field = type { i32, i32 }
%struct.ieee80211_tagged_field_data = type { i32, ptr, i8, ptr, ptr }

@ei_ieee80211_tag_length = internal global %struct.expert_field zeroinitializer, align 4
@hf_ieee80211_tag_activity = internal global i32 0, align 4
@hf_ieee80211_tag_ref_timestamp = internal global i32 0, align 4
@.str.10261 = private unnamed_addr constant [31 x i8] c"Tag Length %u wrong, must be 5\00", align 1

; Function Attrs: null_pointer_is_valid sspstrong uwtable
define internal i32 @ieee80211_tag_dmg_link_adaption_ack(ptr noundef %0, ptr noundef %1, ptr noundef %2, ptr noundef %3) #1 {
  %5 = alloca i32, align 4
  %6 = alloca ptr, align 8
  %7 = alloca ptr, align 8
  %8 = alloca ptr, align 8
  %9 = alloca ptr, align 8
  %10 = alloca i32, align 4
  %11 = alloca ptr, align 8
  %12 = alloca i32, align 4
  %13 = alloca i32, align 4
  store ptr %0, ptr %6, align 8
  store ptr %1, ptr %7, align 8
  store ptr %2, ptr %8, align 8
  store ptr %3, ptr %9, align 8
  call void @llvm.lifetime.start.p0(i64 4, ptr %10) #19
  %14 = load ptr, ptr %6, align 8
  %15 = call i32 @tvb_reported_length(ptr noundef %14)
  store i32 %15, ptr %10, align 4
  call void @llvm.lifetime.start.p0(i64 8, ptr %11) #19
  %16 = load ptr, ptr %9, align 8
  store ptr %16, ptr %11, align 8
  call void @llvm.lifetime.start.p0(i64 4, ptr %12) #19
  store i32 0, ptr %12, align 4
  %17 = load i32, ptr %10, align 4
  %18 = icmp ne i32 %17, 5
  br i1 %18, label %19, label %28

19:                                               ; preds = %4
  %20 = load ptr, ptr %7, align 8
  %21 = load ptr, ptr %11, align 8
  %22 = getelementptr inbounds nuw %struct.ieee80211_tagged_field_data, ptr %21, i32 0, i32 4
  %23 = load ptr, ptr %22, align 8
  %24 = load i32, ptr %10, align 4
  %25 = call ptr (ptr, ptr, ptr, ptr, ...) @expert_add_info_format(ptr noundef %20, ptr noundef %23, ptr noundef @ei_ieee80211_tag_length, ptr noundef @.str.10261, i32 noundef %24)
  %26 = load ptr, ptr %6, align 8
  %27 = call i32 @tvb_captured_length(ptr noundef %26)
  store i32 %27, ptr %5, align 4
  store i32 1, ptr %13, align 4
  br label %43

28:                                               ; preds = %4
  %29 = load ptr, ptr %8, align 8
  %30 = load i32, ptr @hf_ieee80211_tag_activity, align 4
  %31 = load ptr, ptr %6, align 8
  %32 = load i32, ptr %12, align 4
  %33 = call ptr @proto_tree_add_item(ptr noundef %29, i32 noundef %30, ptr noundef %31, i32 noundef %32, i32 noundef 1, i32 noundef 0)
  %34 = load i32, ptr %12, align 4
  %35 = add i32 %34, 1
  store i32 %35, ptr %12, align 4
  %36 = load ptr, ptr %8, align 8
  %37 = load i32, ptr @hf_ieee80211_tag_ref_timestamp, align 4
  %38 = load ptr, ptr %6, align 8
  %39 = load i32, ptr %12, align 4
  %40 = call ptr @proto_tree_add_item(ptr noundef %36, i32 noundef %37, ptr noundef %38, i32 noundef %39, i32 noundef 3, i32 noundef -2147483648)
  %41 = load ptr, ptr %6, align 8
  %42 = call i32 @tvb_captured_length(ptr noundef %41)
  store i32 %42, ptr %5, align 4
  store i32 1, ptr %13, align 4
  br label %43

43:                                               ; preds = %28, %19
  call void @llvm.lifetime.end.p0(i64 4, ptr %12) #19
  call void @llvm.lifetime.end.p0(i64 8, ptr %11) #19
  call void @llvm.lifetime.end.p0(i64 4, ptr %10) #19
  %44 = load i32, ptr %5, align 4
  ret i32 %44
}